target datalayout = "e-m:e-p270:32:32-p271:32:32-p272:64:64-i64:64-i128:128-f80:128-n8:16:32:64-S128"
target triple = "x86_64-pc-linux-gnu"

%struct._value_string = type { i32, ptr }
%struct._GString = type { ptr, i64, i64 }

@.str.308 = private unnamed_addr constant [13 x i8] c"btatt.handle\00", align 1
@proto_btatt = internal global i32 0, align 4
@btatt_handle = internal global ptr null, align 8
@.str.2135 = private unnamed_addr constant [1 x i8] zeroinitializer, align 1
@.str.2136 = private unnamed_addr constant [5 x i8] c"http\00", align 1
@http_handle = internal global ptr null, align 8
@.str.2137 = private unnamed_addr constant [34 x i8] c"usbhid.boot_report.keyboard.input\00", align 1
@usb_hid_boot_keyboard_input_report_handle = internal global ptr null, align 8
@.str.2138 = private unnamed_addr constant [35 x i8] c"usbhid.boot_report.keyboard.output\00", align 1
@usb_hid_boot_keyboard_output_report_handle = internal global ptr null, align 8
@.str.2139 = private unnamed_addr constant [31 x i8] c"usbhid.boot_report.mouse.input\00", align 1
@usb_hid_boot_mouse_input_report_handle = internal global ptr null, align 8
@.str.2140 = private unnamed_addr constant [13 x i8] c"btmesh.proxy\00", align 1
@btmesh_proxy_handle = internal global ptr null, align 8
@.str.2141 = private unnamed_addr constant [12 x i8] c"btl2cap.psm\00", align 1
@.str.2142 = private unnamed_addr constant [12 x i8] c"btl2cap.cid\00", align 1
@bluetooth_uuid_vals = external constant [0 x %struct._value_string], align 8
@.str.2143 = private unnamed_addr constant [7 x i8] c"0x%04x\00", align 1
@.str.2144 = private unnamed_addr constant [26 x i8] c"Bluetooth GATT Attribute \00", align 1
@.str.2145 = private unnamed_addr constant [8 x i8] c" (UUID \00", align 1
@.str.2146 = private unnamed_addr constant [2 x i8] c")\00", align 1
@.str.2147 = private unnamed_addr constant [9 x i8] c"BT GATT \00", align 1
@.str.2148 = private unnamed_addr constant [12 x i8] c"btgatt.uuid\00", align 1

; Function Attrs: null_pointer_is_valid sspstrong uwtable
define hidden void @proto_reg_handoff_btatt() #0 {
  %1 = alloca i32, align 4
  %2 = alloca ptr, align 8
  %3 = alloca ptr, align 8
  %4 = alloca ptr, align 8
  %5 = alloca ptr, align 8
  %6 = alloca ptr, align 8
  %7 = alloca i32, align 4
  %8 = alloca i32, align 4
  call void @llvm.lifetime.start.p0(i64 4, ptr %1) #12
  call void @llvm.lifetime.start.p0(i64 8, ptr %2) #12
  %9 = call ptr @g_string_new(ptr noundef @.str.2135)
  store ptr %9, ptr %2, align 8
  %10 = load i32, ptr @proto_btatt, align 4
  %11 = call ptr @find_dissector_add_dependency(ptr noundef @.str.2136, i32 noundef %10)
  store ptr %11, ptr @http_handle, align 8
  %12 = load i32, ptr @proto_btatt, align 4
  %13 = call ptr @find_dissector_add_dependency(ptr noundef @.str.2137, i32 noundef %12)
  store ptr %13, ptr @usb_hid_boot_keyboard_input_report_handle, align 8
  %14 = load i32, ptr @proto_btatt, align 4
  %15 = call ptr @find_dissector_add_dependency(ptr noundef @.str.2138, i32 noundef %14)
  store ptr %15, ptr @usb_hid_boot_keyboard_output_report_handle, align 8
  %16 = load i32, ptr @proto_btatt, align 4
  %17 = call ptr @find_dissector_add_dependency(ptr noundef @.str.2139, i32 noundef %16)
  store ptr %17, ptr @usb_hid_boot_mouse_input_report_handle, align 8
  %18 = load i32, ptr @proto_btatt, align 4
  %19 = call ptr @find_dissector_add_dependency(ptr noundef @.str.2140, i32 noundef %18)
  store ptr %19, ptr @btmesh_proxy_handle, align 8
  %20 = load ptr, ptr @btatt_handle, align 8
  call void @dissector_add_uint(ptr noundef @.str.2141, i32 noundef 31, ptr noundef %20)
  %21 = load ptr, ptr @btatt_handle, align 8
  call void @dissector_add_uint(ptr noundef @.str.2141, i32 noundef 39, ptr noundef %21)
  %22 = load ptr, ptr @btatt_handle, align 8
  call void @dissector_add_uint(ptr noundef @.str.2142, i32 noundef 4, ptr noundef %22)
  store i32 0, ptr %1, align 4
  br label %23

23:                                               ; preds = %98, %0
  %24 = load i32, ptr %1, align 4
  %25 = sext i32 %24 to i64
  %26 = getelementptr [0 x %struct._value_string], ptr @bluetooth_uuid_vals, i64 0, i64 %25
  %27 = getelementptr inbounds nuw %struct._value_string, ptr %26, i32 0, i32 1
  %28 = load ptr, ptr %27, align 8
  %29 = icmp ne ptr %28, null
  br i1 %29, label %30, label %101

30:                                               ; preds = %23
  call void @llvm.lifetime.start.p0(i64 8, ptr %3) #12
  call void @llvm.lifetime.start.p0(i64 8, ptr %4) #12
  call void @llvm.lifetime.start.p0(i64 8, ptr %5) #12
  call void @llvm.lifetime.start.p0(i64 8, ptr %6) #12
  call void @llvm.lifetime.start.p0(i64 4, ptr %7) #12
  %31 = load i32, ptr %1, align 4
  %32 = sext i32 %31 to i64
  %33 = getelementptr [0 x %struct._value_string], ptr @bluetooth_uuid_vals, i64 0, i64 %32
  %34 = getelementptr inbounds nuw %struct._value_string, ptr %33, i32 0, i32 0
  %35 = load i32, ptr %34, align 8
  %36 = icmp ult i32 %35, 6144
  br i1 %36, label %37, label %38

37:                                               ; preds = %30
  store i32 4, ptr %8, align 4
  br label %95

38:                                               ; preds = %30
  %39 = load i32, ptr %1, align 4
  %40 = sext i32 %39 to i64
  %41 = getelementptr [0 x %struct._value_string], ptr @bluetooth_uuid_vals, i64 0, i64 %40
  %42 = getelementptr inbounds nuw %struct._value_string, ptr %41, i32 0, i32 0
  %43 = load i32, ptr %42, align 8
  %44 = and i32 %43, 65280
  %45 = icmp eq i32 %44, 9984
  br i1 %45, label %54, label %46

46:                                               ; preds = %38
  %47 = load i32, ptr %1, align 4
  %48 = sext i32 %47 to i64
  %49 = getelementptr [0 x %struct._value_string], ptr @bluetooth_uuid_vals, i64 0, i64 %48
  %50 = getelementptr inbounds nuw %struct._value_string, ptr %49, i32 0, i32 0
  %51 = load i32, ptr %50, align 8
  %52 = and i32 %51, 61440
  %53 = icmp eq i32 %52, 61440
  br i1 %53, label %54, label %55

54:                                               ; preds = %46, %38
  store i32 4, ptr %8, align 4
  br label %95

55:                                               ; preds = %46
  %56 = load ptr, ptr %2, align 8
  %57 = load i32, ptr %1, align 4
  %58 = sext i32 %57 to i64
  %59 = getelementptr [0 x %struct._value_string], ptr @bluetooth_uuid_vals, i64 0, i64 %58
  %60 = getelementptr inbounds nuw %struct._value_string, ptr %59, i32 0, i32 0
  %61 = load i32, ptr %60, align 8
  call void (ptr, ptr, ...) @g_string_printf(ptr noundef %56, ptr noundef @.str.2143, i32 noundef %61)
  %62 = call ptr @wmem_epan_scope()
  %63 = load i32, ptr %1, align 4
  %64 = sext i32 %63 to i64
  %65 = getelementptr [0 x %struct._value_string], ptr @bluetooth_uuid_vals, i64 0, i64 %64
  %66 = getelementptr inbounds nuw %struct._value_string, ptr %65, i32 0, i32 1
  %67 = load ptr, ptr %66, align 8
  %68 = load ptr, ptr %2, align 8
  %69 = getelementptr inbounds nuw %struct._GString, ptr %68, i32 0, i32 0
  %70 = load ptr, ptr %69, align 8
  %71 = call noalias ptr (ptr, ptr, ...) @wmem_strconcat(ptr noundef %62, ptr noundef @.str.2144, ptr noundef %67, ptr noundef @.str.2145, ptr noundef %70, ptr noundef @.str.2146, ptr noundef null)
  store ptr %71, ptr %3, align 8
  %72 = call ptr @wmem_epan_scope()
  %73 = load i32, ptr %1, align 4
  %74 = sext i32 %73 to i64
  %75 = getelementptr [0 x %struct._value_string], ptr @bluetooth_uuid_vals, i64 0, i64 %74
  %76 = getelementptr inbounds nuw %struct._value_string, ptr %75, i32 0, i32 1
  %77 = load ptr, ptr %76, align 8
  %78 = load ptr, ptr %2, align 8
  %79 = getelementptr inbounds nuw %struct._GString, ptr %78, i32 0, i32 0
  %80 = load ptr, ptr %79, align 8
  %81 = call noalias ptr (ptr, ptr, ...) @wmem_strconcat(ptr noundef %72, ptr noundef @.str.2147, ptr noundef %77, ptr noundef @.str.2145, ptr noundef %80, ptr noundef @.str.2146, ptr noundef null)
  store ptr %81, ptr %4, align 8
  %82 = call ptr @wmem_epan_scope()
  %83 = load ptr, ptr %2, align 8
  %84 = getelementptr inbounds nuw %struct._GString, ptr %83, i32 0, i32 0
  %85 = load ptr, ptr %84, align 8
  %86 = call noalias ptr (ptr, ptr, ...) @wmem_strconcat(ptr noundef %82, ptr noundef @.str.2148, ptr noundef %85, ptr noundef null)
  store ptr %86, ptr %5, align 8
  %87 = load ptr, ptr %3, align 8
  %88 = load ptr, ptr %4, align 8
  %89 = load ptr, ptr %5, align 8
  %90 = call i32 @proto_register_protocol(ptr noundef %87, ptr noundef %88, ptr noundef %89)
  store i32 %90, ptr %7, align 4
  %91 = load ptr, ptr %5, align 8
  %92 = load i32, ptr %7, align 4
  %93 = call ptr @register_dissector(ptr noundef %91, ptr noundef @dissect_btgatt, i32 noundef %92)
  store ptr %93, ptr %6, align 8
  %94 = load ptr, ptr %6, align 8
  call void @dissector_add_for_decode_as(ptr noundef @.str.308, ptr noundef %94)
  store i32 0, ptr %8, align 4
  br label %95

95:                                               ; preds = %55, %54, %37
  call void @llvm.lifetime.end.p0(i64 4, ptr %7) #12
  call void @llvm.lifetime.end.p0(i64 8, ptr %6) #12
  call void @llvm.lifetime.end.p0(i64 8, ptr %5) #12
  call void @llvm.lifetime.end.p0(i64 8, ptr %4) #12
  call void @llvm.lifetime.end.p0(i64 8, ptr %3) #12
  %96 = load i32, ptr %8, align 4
  switch i32 %96, label %104 [
    i32 0, label %97
    i32 4, label %98
  ]

97:                                               ; preds = %95
  br label %98

98:                                               ; preds = %97, %95
  %99 = load i32, ptr %1, align 4
  %100 = add i32 %99, 1
  store i32 %100, ptr %1, align 4
  br label %23, !llvm.loop !14

101:                                              ; preds = %23
  %102 = load ptr, ptr %2, align 8
  %103 = call ptr @g_string_free(ptr noundef %102, i32 noundef 1)
  call void @llvm.lifetime.end.p0(i64 8, ptr %2) #12
  call void @llvm.lifetime.end.p0(i64 4, ptr %1) #12
  ret void

104:                                              ; preds = %95
  unreachable
}