; Function Attrs: null_pointer_is_valid sspstrong uwtable
define hidden void @proto_reg_handoff_btatt() local_unnamed_addr #1 {
  %1 = tail call ptr @g_string_new(ptr noundef nonnull @.str.2135)
  %2 = load i32, ptr @proto_btatt, align 4
  %3 = tail call ptr @find_dissector_add_dependency(ptr noundef nonnull @.str.2136, i32 noundef %2)
  store ptr %3, ptr @http_handle, align 8
  %4 = load i32, ptr @proto_btatt, align 4
  %5 = tail call ptr @find_dissector_add_dependency(ptr noundef nonnull @.str.2137, i32 noundef %4)
  store ptr %5, ptr @usb_hid_boot_keyboard_input_report_handle, align 8
  %6 = load i32, ptr @proto_btatt, align 4
  %7 = tail call ptr @find_dissector_add_dependency(ptr noundef nonnull @.str.2138, i32 noundef %6)
  store ptr %7, ptr @usb_hid_boot_keyboard_output_report_handle, align 8
  %8 = load i32, ptr @proto_btatt, align 4
  %9 = tail call ptr @find_dissector_add_dependency(ptr noundef nonnull @.str.2139, i32 noundef %8)
  store ptr %9, ptr @usb_hid_boot_mouse_input_report_handle, align 8
  %10 = load i32, ptr @proto_btatt, align 4
  %11 = tail call ptr @find_dissector_add_dependency(ptr noundef nonnull @.str.2140, i32 noundef %10)
  store ptr %11, ptr @btmesh_proxy_handle, align 8
  %12 = load ptr, ptr @btatt_handle, align 8
  tail call void @dissector_add_uint(ptr noundef nonnull @.str.2141, i32 noundef 31, ptr noundef %12)
  %13 = load ptr, ptr @btatt_handle, align 8
  tail call void @dissector_add_uint(ptr noundef nonnull @.str.2141, i32 noundef 39, ptr noundef %13)
  %14 = load ptr, ptr @btatt_handle, align 8
  tail call void @dissector_add_uint(ptr noundef nonnull @.str.2142, i32 noundef 4, ptr noundef %14)
  %15 = load ptr, ptr getelementptr inbounds nuw (i8, ptr @bluetooth_uuid_vals, i64 8), align 8
  %.not20 = icmp eq ptr %15, null
  br i1 %.not20, label %._crit_edge, label %.lr.ph

.lr.ph:                                           ; preds = %0, %37
  %16 = phi ptr [ %42, %37 ], [ %15, %0 ]
  %17 = phi ptr [ %40, %37 ], [ @bluetooth_uuid_vals, %0 ]
  %.021 = phi i32 [ %38, %37 ], [ 0, %0 ]
  %18 = load i32, ptr %17, align 8
  %19 = icmp ult i32 %18, 6144
  br i1 %19, label %37, label %20

20:                                               ; preds = %.lr.ph
  %21 = and i32 %18, 65280
  %22 = icmp eq i32 %21, 9984
  %23 = and i32 %18, 61440
  %24 = icmp eq i32 %23, 61440
  %or.cond = or i1 %22, %24
  br i1 %or.cond, label %37, label %25

25:                                               ; preds = %20
  tail call void (ptr, ptr, ...) @g_string_printf(ptr noundef %1, ptr noundef nonnull @.str.2143, i32 noundef %18)
  %26 = tail call ptr @wmem_epan_scope()
  %27 = load ptr, ptr %1, align 8
  %28 = tail call noalias ptr (ptr, ptr, ...) @wmem_strconcat(ptr noundef %26, ptr noundef nonnull @.str.2144, ptr noundef nonnull %16, ptr noundef nonnull @.str.2145, ptr noundef %27, ptr noundef nonnull @.str.2146, ptr noundef null)
  %29 = tail call ptr @wmem_epan_scope()
  %30 = load ptr, ptr %1, align 8
  %31 = tail call noalias ptr (ptr, ptr, ...) @wmem_strconcat(ptr noundef %29, ptr noundef nonnull @.str.2147, ptr noundef nonnull %16, ptr noundef nonnull @.str.2145, ptr noundef %30, ptr noundef nonnull @.str.2146, ptr noundef null)
  %32 = tail call ptr @wmem_epan_scope()
  %33 = load ptr, ptr %1, align 8
  %34 = tail call noalias ptr (ptr, ptr, ...) @wmem_strconcat(ptr noundef %32, ptr noundef nonnull @.str.2148, ptr noundef %33, ptr noundef null)
  %35 = tail call i32 @proto_register_protocol(ptr noundef %28, ptr noundef %31, ptr noundef %34)
  %36 = tail call ptr @register_dissector(ptr noundef %34, ptr noundef nonnull @dissect_btgatt, i32 noundef %35)
  tail call void @dissector_add_for_decode_as(ptr noundef nonnull @.str.308, ptr noundef %36)
  br label %37

37:                                               ; preds = %20, %.lr.ph, %25
  %38 = add i32 %.021, 1
  %39 = sext i32 %38 to i64
  %40 = getelementptr [0 x %struct._value_string], ptr @bluetooth_uuid_vals, i64 0, i64 %39
  %41 = getelementptr inbounds nuw i8, ptr %40, i64 8
  %42 = load ptr, ptr %41, align 8
  %.not = icmp eq ptr %42, null
  br i1 %.not, label %._crit_edge, label %.lr.ph, !llvm.loop !14

._crit_edge:                                      ; preds = %37, %0
  %43 = tail call ptr @g_string_free(ptr noundef %1, i32 noundef 1)
  ret void
}